; Function Attrs: mustprogress nofree norecurse nosync nounwind memory(readwrite, inaccessiblemem: none) uwtable
define dso_local void @_ZN34btDeformableBackwardEulerObjective14updateVelocityERK20btAlignedObjectArrayI9btVector3E(ptr nocapture noundef nonnull readonly align 8 dereferenceable(504) %this, ptr nocapture noundef nonnull readonly align 8 dereferenceable(25) %dv) local_unnamed_addr #12 align 2 {
entry:
  %m_softBodies = getelementptr inbounds i8, ptr %this, i64 48
  %0 = load ptr, ptr %m_softBodies, align 8
  %m_size.i20 = getelementptr inbounds i8, ptr %0, i64 4
  %1 = load i32, ptr %m_size.i20, align 4
  %cmp21 = icmp sgt i32 %1, 0
  br i1 %cmp21, label %for.body.lr.ph, label %for.end16

for.body.lr.ph:                                   ; preds = %entry
  %m_backupVelocity = getelementptr inbounds i8, ptr %this, i64 440
  %m_data.i15 = getelementptr inbounds i8, ptr %dv, i64 16
  br label %for.body

for.body:                                         ; preds = %for.body.lr.ph, %for.inc14
  %2 = phi ptr [ %0, %for.body.lr.ph ], [ %18, %for.inc14 ]
  %indvars.iv24 = phi i64 [ 0, %for.body.lr.ph ], [ %indvars.iv.next25, %for.inc14 ]
  %m_data.i = getelementptr inbounds i8, ptr %2, i64 16
  %3 = load ptr, ptr %m_data.i, align 8
  %arrayidx.i = getelementptr inbounds ptr, ptr %3, i64 %indvars.iv24
  %4 = load ptr, ptr %arrayidx.i, align 8
  %m_size.i8 = getelementptr inbounds i8, ptr %4, i64 932
  %5 = load i32, ptr %m_size.i8, align 4
  %cmp618 = icmp sgt i32 %5, 0
  br i1 %cmp618, label %for.body7.lr.ph, label %for.inc14

for.body7.lr.ph:                                  ; preds = %for.body
  %m_data.i9 = getelementptr inbounds i8, ptr %4, i64 944
  br label %for.body7

for.body7:                                        ; preds = %for.body7.lr.ph, %for.body7
  %indvars.iv = phi i64 [ 0, %for.body7.lr.ph ], [ %indvars.iv.next, %for.body7 ]
  %6 = load ptr, ptr %m_data.i9, align 8
  %arrayidx.i11 = getelementptr inbounds %"struct.btSoftBody::Node", ptr %6, i64 %indvars.iv
  %7 = load ptr, ptr %m_backupVelocity, align 8
  %index = getelementptr inbounds i8, ptr %arrayidx.i11, i64 136
  %8 = load i32, ptr %index, align 8
  %m_data.i12 = getelementptr inbounds i8, ptr %7, i64 16
  %9 = load ptr, ptr %m_data.i12, align 8
  %idxprom.i13 = sext i32 %8 to i64
  %arrayidx.i14 = getelementptr inbounds %class.btVector3, ptr %9, i64 %idxprom.i13
  %10 = load ptr, ptr %m_data.i15, align 8
  %arrayidx.i17 = getelementptr inbounds %class.btVector3, ptr %10, i64 %idxprom.i13
  %11 = load <2 x float>, ptr %arrayidx.i14, align 4
  %12 = load <2 x float>, ptr %arrayidx.i17, align 4
  %13 = fadd <2 x float> %11, %12
  %arrayidx11.i = getelementptr inbounds i8, ptr %arrayidx.i14, i64 8
  %14 = load float, ptr %arrayidx11.i, align 4
  %arrayidx13.i = getelementptr inbounds i8, ptr %arrayidx.i17, i64 8
  %15 = load float, ptr %arrayidx13.i, align 4
  %add14.i = fadd float %14, %15
  %retval.sroa.3.12.vec.insert.i = insertelement <2 x float> <float poison, float 0.000000e+00>, float %add14.i, i64 0
  %m_v = getelementptr inbounds i8, ptr %arrayidx.i11, i64 48
  store <2 x float> %13, ptr %m_v, align 8
  %ref.tmp.sroa.2.0.m_v.sroa_idx = getelementptr inbounds i8, ptr %arrayidx.i11, i64 56
  store <2 x float> %retval.sroa.3.12.vec.insert.i, ptr %ref.tmp.sroa.2.0.m_v.sroa_idx, align 8
  %indvars.iv.next = add nuw nsw i64 %indvars.iv, 1
  %16 = load i32, ptr %m_size.i8, align 4
  %17 = sext i32 %16 to i64
  %cmp6 = icmp slt i64 %indvars.iv.next, %17
  br i1 %cmp6, label %for.body7, label %for.inc14.loopexit, !llvm.loop !37

for.inc14.loopexit:                               ; preds = %for.body7
  %.pre = load ptr, ptr %m_softBodies, align 8
  br label %for.inc14

for.inc14:                                        ; preds = %for.inc14.loopexit, %for.body
  %18 = phi ptr [ %.pre, %for.inc14.loopexit ], [ %2, %for.body ]
  %indvars.iv.next25 = add nuw nsw i64 %indvars.iv24, 1
  %m_size.i = getelementptr inbounds i8, ptr %18, i64 4
  %19 = load i32, ptr %m_size.i, align 4
  %20 = sext i32 %19 to i64
  %cmp = icmp slt i64 %indvars.iv.next25, %20
  br i1 %cmp, label %for.body, label %for.end16, !llvm.loop !38

for.end16:                                        ; preds = %for.inc14, %entry
  ret void
}